; Function Attrs: mustprogress uwtable
define void @_ZN6icu_7519TransliteratorAliasC2ERKNS_13UnicodeStringES3_PNS_7UVectorEPKNS_10UnicodeSetE(ptr noundef nonnull align 8 dereferenceable(160) %this, ptr noundef nonnull align 8 dereferenceable(64) %theID, ptr noundef nonnull align 8 dereferenceable(64) %idBlocks, ptr noundef %adoptedTransliterators, ptr noundef %cpdFilter) unnamed_addr #1 align 2 personality ptr @__gxx_personality_v0 {
entry:
  %ID = getelementptr inbounds i8, ptr %this, i64 8
  tail call void @_ZN6icu_7513UnicodeStringC1ERKS0_(ptr noundef nonnull align 8 dereferenceable(64) %ID, ptr noundef nonnull align 8 dereferenceable(64) %theID)
  %aliasesOrRules = getelementptr inbounds i8, ptr %this, i64 72
  invoke void @_ZN6icu_7513UnicodeStringC1ERKS0_(ptr noundef nonnull align 8 dereferenceable(64) %aliasesOrRules, ptr noundef nonnull align 8 dereferenceable(64) %idBlocks)
          to label %invoke.cont unwind label %lpad

invoke.cont:                                      ; preds = %entry
  %transes = getelementptr inbounds i8, ptr %this, i64 136
  store ptr %adoptedTransliterators, ptr %transes, align 8
  %compoundFilter = getelementptr inbounds i8, ptr %this, i64 144
  store ptr %cpdFilter, ptr %compoundFilter, align 8
  %direction = getelementptr inbounds i8, ptr %this, i64 152
  store i32 0, ptr %direction, align 8
  %type = getelementptr inbounds i8, ptr %this, i64 156
  store i32 1, ptr %type, align 4
  ret void

lpad:                                             ; preds = %entry
  %0 = landingpad { ptr, i32 }
          cleanup
  tail call void @_ZN6icu_7513UnicodeStringD1Ev(ptr noundef nonnull align 8 dereferenceable(64) %ID) #15
  resume { ptr, i32 } %0
}